target datalayout = "e-m:e-p270:32:32-p271:32:32-p272:64:64-i64:64-i128:128-f80:128-n8:16:32:64-S128"
target triple = "x86_64-pc-linux-gnu"

%struct.FxuMatrix = type { %struct.FxuListCube, %struct.FxuListVar, ptr, ptr, i32, i32, i32, ptr, %struct.FxuListSingle, ptr, i32, i32, ptr, ptr, ptr, ptr, ptr, ptr, ptr, i32, i32, i32, i32, ptr }
%struct.FxuListCube = type { ptr, ptr, i32 }
%struct.FxuListVar = type { ptr, ptr, i32 }
%struct.FxuListSingle = type { ptr, ptr, i32 }

@s_MemoryTotal = internal global i32 0, align 4

; Function Attrs: nounwind uwtable
define void @Fxu_MemRecycle(ptr noundef %0, ptr noundef %1, i32 noundef %2) #0 {
  %4 = alloca ptr, align 8
  %5 = alloca ptr, align 8
  %6 = alloca i32, align 4
  store ptr %0, ptr %4, align 8, !tbaa !10
  store ptr %1, ptr %5, align 8, !tbaa !66
  store i32 %2, ptr %6, align 4, !tbaa !8
  %7 = load i32, ptr %6, align 4, !tbaa !8
  %8 = load i32, ptr @s_MemoryTotal, align 4, !tbaa !8
  %9 = sub nsw i32 %8, %7
  store i32 %9, ptr @s_MemoryTotal, align 4, !tbaa !8
  %10 = load ptr, ptr %4, align 8, !tbaa !10
  %11 = getelementptr inbounds nuw %struct.FxuMatrix, ptr %10, i32 0, i32 23
  %12 = load ptr, ptr %11, align 8, !tbaa !65
  %13 = load ptr, ptr %5, align 8, !tbaa !66
  call void @Extra_MmFixedEntryRecycle(ptr noundef %12, ptr noundef %13)
  ret void
}