; Function Attrs: nounwind uwtable
define void @Fxu_MemRecycle(ptr noundef readonly captures(none) %0, ptr noundef %1, i32 noundef %2) local_unnamed_addr #0 {
  %4 = load i32, ptr @s_MemoryTotal, align 4, !tbaa !3
  %5 = sub nsw i32 %4, %2
  store i32 %5, ptr @s_MemoryTotal, align 4, !tbaa !3
  %6 = getelementptr inbounds nuw i8, ptr %0, i64 200
  %7 = load ptr, ptr %6, align 8, !tbaa !57
  tail call void @Extra_MmFixedEntryRecycle(ptr noundef %7, ptr noundef %1) #7
  ret void
}